; Function Attrs: null_pointer_is_valid sspstrong uwtable
define internal i32 @dissect_cip_class1(ptr noundef %0, ptr noundef readnone captures(none) %1, ptr noundef %2, ptr readnone captures(none) %3) #0 {
  %5 = alloca %struct.cip_conn_info, align 8
  %6 = alloca %struct.cip_io_data_input, align 8
  call void @llvm.lifetime.start.p0(i64 264, ptr nonnull %5) #12
  call void @llvm.memset.p0.i64(ptr noundef nonnull align 8 dereferenceable(264) %5, i8 noundef 0, i64 noundef 264, i1 noundef false) #12
  %7 = getelementptr inbounds nuw i8, ptr %5, i64 8
  store i8 1, ptr %7, align 8
  call void @llvm.lifetime.start.p0(i64 16, ptr nonnull %6) #12
  store ptr %5, ptr %6, align 8
  %8 = getelementptr inbounds nuw i8, ptr %6, i64 8
  store i32 0, ptr %8, align 8
  %9 = call i32 @dissect_cip_io_generic(ptr noundef %0, ptr poison, ptr noundef %2, ptr noundef nonnull %6)
  call void @llvm.lifetime.end.p0(i64 16, ptr nonnull %6) #12
  call void @llvm.lifetime.end.p0(i64 264, ptr nonnull %5) #12
  ret i32 %9
}